; Function Attrs: mustprogress nounwind uwtable
define hidden void @_ZN12MergeMemNode13grow_to_matchEPKS_(ptr noundef nonnull align 8 dereferenceable(52) %0, ptr nocapture noundef readonly %1) local_unnamed_addr #1 align 2 {
  %3 = getelementptr inbounds i8, ptr %0, i64 8
  %4 = load ptr, ptr %3, align 8
  %5 = getelementptr inbounds i8, ptr %4, i64 8
  %6 = load ptr, ptr %5, align 8
  %7 = getelementptr inbounds i8, ptr %1, i64 24
  %8 = load i32, ptr %7, align 8
  %9 = getelementptr inbounds i8, ptr %0, i64 24
  %10 = load i32, ptr %9, align 8
  %11 = getelementptr inbounds i8, ptr %1, i64 8
  br label %12

12:                                               ; preds = %14, %2
  %.0 = phi i32 [ %8, %2 ], [ %13, %14 ]
  %13 = add i32 %.0, -1
  %.not = icmp ult i32 %13, %10
  br i1 %.not, label %.loopexit, label %14

14:                                               ; preds = %12
  %15 = load ptr, ptr %11, align 8
  %16 = zext i32 %13 to i64
  %17 = getelementptr inbounds ptr, ptr %15, i64 %16
  %18 = load ptr, ptr %17, align 8
  %.not10 = icmp eq ptr %18, %6
  br i1 %.not10, label %12, label %.preheader, !llvm.loop !68

.preheader:                                       ; preds = %14
  %19 = icmp ult i32 %10, %.0
  br i1 %19, label %.lr.ph, label %.loopexit

.lr.ph:                                           ; preds = %.preheader, %.lr.ph
  tail call void @_ZN4Node7add_reqEPS_(ptr noundef nonnull align 8 dereferenceable(52) %0, ptr noundef %6) #13
  %20 = load i32, ptr %9, align 8
  %21 = icmp ult i32 %20, %.0
  br i1 %21, label %.lr.ph, label %.loopexit, !llvm.loop !69

.loopexit:                                        ; preds = %12, %.lr.ph, %.preheader
  ret void
}